target datalayout = "e-m:e-p270:32:32-p271:32:32-p272:64:64-i64:64-i128:128-f80:128-n8:16:32:64-S128"
target triple = "x86_64-pc-linux-gnu"

%"class.Ipopt::SolveStatistics" = type { %"class.Ipopt::ReferencedObject.base", i32, double, double, double, i32, i32, i32, i32, i32, double, double, double, double, double, double, double, double, double, double, double, double }
%"class.Ipopt::ReferencedObject.base" = type <{ ptr, i32 }>

; Function Attrs: mustprogress nounwind uwtable
define void @_ZNK5Ipopt15SolveStatistics15InfeasibilitiesERdS1_S1_S1_(ptr noundef nonnull align 8 dereferenceable(160) %0, ptr noundef nonnull align 8 dereferenceable(8) %1, ptr noundef nonnull align 8 dereferenceable(8) %2, ptr noundef nonnull align 8 dereferenceable(8) %3, ptr noundef nonnull align 8 dereferenceable(8) %4) unnamed_addr #5 align 2 {
  %6 = alloca ptr, align 8
  %7 = alloca ptr, align 8
  %8 = alloca ptr, align 8
  %9 = alloca ptr, align 8
  %10 = alloca ptr, align 8
  store ptr %0, ptr %6, align 8, !tbaa !3
  store ptr %1, ptr %7, align 8, !tbaa !81
  store ptr %2, ptr %8, align 8, !tbaa !81
  store ptr %3, ptr %9, align 8, !tbaa !81
  store ptr %4, ptr %10, align 8, !tbaa !81
  %11 = load ptr, ptr %6, align 8
  %12 = getelementptr inbounds nuw %"class.Ipopt::SolveStatistics", ptr %11, i32 0, i32 13
  %13 = load double, ptr %12, align 8, !tbaa !32
  %14 = load ptr, ptr %7, align 8, !tbaa !81
  store double %13, ptr %14, align 8, !tbaa !83
  %15 = getelementptr inbounds nuw %"class.Ipopt::SolveStatistics", ptr %11, i32 0, i32 15
  %16 = load double, ptr %15, align 8, !tbaa !34
  %17 = load ptr, ptr %8, align 8, !tbaa !81
  store double %16, ptr %17, align 8, !tbaa !83
  %18 = getelementptr inbounds nuw %"class.Ipopt::SolveStatistics", ptr %11, i32 0, i32 19
  %19 = load double, ptr %18, align 8, !tbaa !38
  %20 = load ptr, ptr %9, align 8, !tbaa !81
  store double %19, ptr %20, align 8, !tbaa !83
  %21 = getelementptr inbounds nuw %"class.Ipopt::SolveStatistics", ptr %11, i32 0, i32 21
  %22 = load double, ptr %21, align 8, !tbaa !40
  %23 = load ptr, ptr %10, align 8, !tbaa !81
  store double %22, ptr %23, align 8, !tbaa !83
  ret void
}