; Function Attrs: mustprogress nofree norecurse nosync nounwind willreturn memory(argmem: readwrite) uwtable
define void @_ZNK5Ipopt15SolveStatistics15InfeasibilitiesERdS1_S1_S1_(ptr noundef nonnull readonly align 8 captures(none) dereferenceable(160) %0, ptr noundef nonnull writeonly align 8 captures(none) dereferenceable(8) initializes((0, 8)) %1, ptr noundef nonnull writeonly align 8 captures(none) dereferenceable(8) initializes((0, 8)) %2, ptr noundef nonnull writeonly align 8 captures(none) dereferenceable(8) initializes((0, 8)) %3, ptr noundef nonnull writeonly align 8 captures(none) dereferenceable(8) initializes((0, 8)) %4) unnamed_addr #5 align 2 {
  %6 = getelementptr inbounds nuw i8, ptr %0, i64 88
  %7 = load double, ptr %6, align 8, !tbaa !54
  store double %7, ptr %1, align 8, !tbaa !64
  %8 = getelementptr inbounds nuw i8, ptr %0, i64 104
  %9 = load double, ptr %8, align 8, !tbaa !56
  store double %9, ptr %2, align 8, !tbaa !64
  %10 = getelementptr inbounds nuw i8, ptr %0, i64 136
  %11 = load double, ptr %10, align 8, !tbaa !60
  store double %11, ptr %3, align 8, !tbaa !64
  %12 = getelementptr inbounds nuw i8, ptr %0, i64 152
  %13 = load double, ptr %12, align 8, !tbaa !62
  store double %13, ptr %4, align 8, !tbaa !64
  ret void
}